Certificate:
    Data:
        Version: 3 (0x2)
        Serial Number: 4098 (0x1002)
    Signature Algorithm: sha256WithRSAEncryption
        Issuer: C=US, ST=Sy, L=ll, O=ll, OU=ll, CN=xie.com/emailAddress=d@syr.edu
        Validity
            Not Before: Apr 27 14:55:02 2018 GMT
            Not After : Apr 27 14:55:02 2019 GMT
        Subject: C=US, ST=Sy, O=ll, OU=ll, CN=xie.com/emailAddress=sdf@syr.edu
        Subject Public Key Info:
            Public Key Algorithm: rsaEncryption
                Public-Key: (1024 bit)
                Modulus:
                    00:bb:b8:78:f6:fb:ee:4e:78:91:45:df:31:bc:28:
                    ae:b5:cd:9a:e3:20:f8:c3:e7:0e:bd:99:5b:27:1c:
                    c4:72:a7:f0:65:81:cd:b4:a6:89:b9:3f:a6:95:64:
                    9d:6a:ec:97:99:f7:c6:e9:bf:55:29:b7:42:b6:77:
                    57:62:82:a7:18:65:28:44:d1:60:2d:bb:6a:6f:94:
                    6f:10:09:b0:c2:ca:a3:fc:1a:74:ca:9b:9e:a8:6a:
                    53:3e:d8:5d:61:ca:02:f9:d5:df:19:cd:ef:9b:47:
                    2c:26:f4:28:d9:be:85:c0:9a:83:2c:80:d8:dc:73:
                    1a:9c:fb:e0:54:17:bf:97:dd
                Exponent: 65537 (0x10001)
        X509v3 extensions:
            X509v3 Basic Constraints: 
                CA:FALSE
            Netscape Comment: 
                OpenSSL Generated Certificate
            X509v3 Subject Key Identifier: 
                8C:2B:E5:B9:65:D0:1C:F4:A2:71:35:AB:70:0C:33:29:BB:10:9F:ED
            X509v3 Authority Key Identifier: 
                keyid:34:F3:4A:FC:9E:4D:E5:84:0C:28:1C:65:89:F9:B6:79:EC:49:02:4B

    Signature Algorithm: sha256WithRSAEncryption
         10:b0:a0:5d:cb:45:70:a3:0b:52:f0:89:0a:94:5c:45:59:73:
         e4:b8:a5:36:fe:3b:2d:10:b8:84:dc:82:b1:59:79:6b:8c:cb:
         10:7d:1e:97:ae:e5:bc:5b:e2:58:7f:a2:c1:78:41:26:cb:83:
         ad:52:e3:4b:5c:5f:8b:ac:a7:58:80:2c:92:f6:25:a9:fd:a5:
         31:f7:46:f4:20:97:c4:ee:34:27:7f:50:85:fe:7c:31:4b:c6:
         f7:af:33:23:5a:9a:ba:ac:73:8a:d9:fe:9a:b7:1d:ff:e4:17:
         8e:81:c9:09:d9:ac:14:c1:6a:97:7e:d3:df:c5:d5:2f:80:6c:
         ce:da
-----BEGIN CERTIFICATE-----
MIICwTCCAiqgAwIBAgICEAIwDQYJKoZIhvcNAQELBQAwbTELMAkGA1UEBhMCVVMx
CzAJBgNVBAgMAlN5MQswCQYDVQQHDAJsbDELMAkGA1UECgwCbGwxCzAJBgNVBAsM
AmxsMRAwDgYDVQQDDAd4aWUuY29tMRgwFgYJKoZIhvcNAQkBFglkQHN5ci5lZHUw
HhcNMTgwNDI3MTQ1NTAyWhcNMTkwNDI3MTQ1NTAyWjBiMQswCQYDVQQGEwJVUzEL
MAkGA1UECAwCU3kxCzAJBgNVBAoMAmxsMQswCQYDVQQLDAJsbDEQMA4GA1UEAwwH
eGllLmNvbTEaMBgGCSqGSIb3DQEJARYLc2RmQHN5ci5lZHUwgZ8wDQYJKoZIhvcN
AQEBBQADgY0AMIGJAoGBALu4ePb77k54kUXfMbworrXNmuMg+MPnDr2ZWyccxHKn
8GWBzbSmibk/ppVknWrsl5n3xum/VSm3QrZ3V2KCpxhlKETRYC27am+UbxAJsMLK
o/wadMqbnqhqUz7YXWHKAvnV3xnN75tHLCb0KNm+hcCagyyA2NxzGpz74FQXv5fd
AgMBAAGjezB5MAkGA1UdEwQCMAAwLAYJYIZIAYb4QgENBB8WHU9wZW5TU0wgR2Vu
ZXJhdGVkIENlcnRpZmljYXRlMB0GA1UdDgQWBBSMK+W5ZdAc9KJxNatwDDMpuxCf
7TAfBgNVHSMEGDAWgBQ080r8nk3lhAwoHGWJ+bZ57EkCSzANBgkqhkiG9w0BAQsF
AAOBgQAQsKBdy0VwowtS8IkKlFxFWXPkuKU2/jstELiE3IKxWXlrjMsQfR6XruW8
W+JYf6LBeEEmy4OtUuNLXF+LrKdYgCyS9iWp/aUx90b0IJfE7jQnf1CF/nwxS8b3
rzMjWpq6rHOK2f6atx3/5BeOgckJ2awUwWqXftPfxdUvgGzO2g==
-----END CERTIFICATE-----
